; Function Attrs: inlinehint mustprogress uwtable
define internal fastcc void @"_ZZNK12_GLOBAL__N_122CeMetadataDeserializer12visit_objectERN5vcpkg4Json6ReaderERKNS2_6ObjectEENK3$_1clES7_NS1_10StringViewERS5_"(ptr %.0.val, ptr noundef nonnull align 8 dereferenceable(24) %0, ptr %1, i64 range(i64 5, 9) %2, ptr noundef nonnull align 8 dereferenceable(24) %3) unnamed_addr #10 align 2 personality ptr @__gxx_personality_v0 {
  %5 = alloca %"struct.vcpkg::LocalizedString", align 8
  %6 = alloca %"struct.vcpkg::LocalizedString", align 8
  %7 = tail call noundef ptr @_ZNK5vcpkg4Json6Object3getENS_10StringViewE(ptr noundef nonnull align 8 dereferenceable(24) %0, ptr %1, i64 %2) #22
  %.not = icmp eq ptr %7, null
  br i1 %.not, label %54, label %8

8:                                                ; preds = %4
  %9 = tail call noundef zeroext i1 @_ZNK5vcpkg4Json5Value9is_objectEv(ptr noundef nonnull align 8 dereferenceable(8) %7) #22
  br i1 %9, label %52, label %10

10:                                               ; preds = %8
  call void @llvm.lifetime.start.p0(i64 32, ptr nonnull %5) #22
  call void @_ZN5vcpkg15LocalizedString8from_rawENS_10StringViewE(ptr dead_on_unwind nonnull writable sret(%"struct.vcpkg::LocalizedString") align 8 %5, ptr %1, i64 %2)
  call void @llvm.lifetime.start.p0(i64 32, ptr nonnull %6) #22
  %.sroa.01.0.copyload = load i64, ptr @_ZN5vcpkg19msgExpectedAnObjectE, align 8, !tbaa !28
  invoke void @_ZN5vcpkg3msg6formatIJEJEEENS_15LocalizedStringENS0_8MessageTIJDpT_EEEDpNS0_6TagArgINS_8identityIS4_E4typeET0_EE(ptr dead_on_unwind nonnull writable sret(%"struct.vcpkg::LocalizedString") align 8 %6, i64 %.sroa.01.0.copyload)
          to label %11 unwind label %32

11:                                               ; preds = %10
  %12 = call { ptr, i64 } @_ZNK5vcpkg15LocalizedStringcvNS_10StringViewEEv(ptr noundef nonnull align 8 dereferenceable(32) %6) #22
  %13 = extractvalue { ptr, i64 } %12, 0
  %14 = extractvalue { ptr, i64 } %12, 1
  invoke void @_ZN5vcpkg4Json6Reader17add_generic_errorERKNS_15LocalizedStringENS_10StringViewE(ptr noundef nonnull align 8 dereferenceable(120) %.0.val, ptr noundef nonnull align 8 dereferenceable(32) %5, ptr %13, i64 %14)
          to label %15 unwind label %34

15:                                               ; preds = %11
  %16 = load ptr, ptr %6, align 8, !tbaa !17
  %17 = getelementptr inbounds nuw i8, ptr %6, i64 16
  %18 = icmp eq ptr %16, %17
  br i1 %18, label %_ZNKSt7__cxx1112basic_stringIcSt11char_traitsIcESaIcEE11_M_is_localEv.exit.thread.i.i.i, label %_ZNKSt7__cxx1112basic_stringIcSt11char_traitsIcESaIcEE11_M_is_localEv.exit.i.i.i

_ZNKSt7__cxx1112basic_stringIcSt11char_traitsIcESaIcEE11_M_is_localEv.exit.thread.i.i.i: ; preds = %15
  %19 = getelementptr inbounds nuw i8, ptr %6, i64 8
  %20 = load i64, ptr %19, align 8, !tbaa !21
  %21 = icmp ult i64 %20, 16
  call void @llvm.assume(i1 %21)
  br label %_ZN5vcpkg15LocalizedStringD2Ev.exit

_ZNKSt7__cxx1112basic_stringIcSt11char_traitsIcESaIcEE11_M_is_localEv.exit.i.i.i: ; preds = %15
  %22 = load i64, ptr %17, align 8, !tbaa !22
  %23 = add i64 %22, 1
  call void @_ZdlPvm(ptr noundef %16, i64 noundef %23) #24
  br label %_ZN5vcpkg15LocalizedStringD2Ev.exit

_ZN5vcpkg15LocalizedStringD2Ev.exit:              ; preds = %_ZNKSt7__cxx1112basic_stringIcSt11char_traitsIcESaIcEE11_M_is_localEv.exit.thread.i.i.i, %_ZNKSt7__cxx1112basic_stringIcSt11char_traitsIcESaIcEE11_M_is_localEv.exit.i.i.i
  call void @llvm.lifetime.end.p0(i64 32, ptr nonnull %6) #22
  %24 = load ptr, ptr %5, align 8, !tbaa !17
  %25 = getelementptr inbounds nuw i8, ptr %5, i64 16
  %26 = icmp eq ptr %24, %25
  br i1 %26, label %_ZNKSt7__cxx1112basic_stringIcSt11char_traitsIcESaIcEE11_M_is_localEv.exit.thread.i.i.i21, label %_ZNKSt7__cxx1112basic_stringIcSt11char_traitsIcESaIcEE11_M_is_localEv.exit.i.i.i20

_ZNKSt7__cxx1112basic_stringIcSt11char_traitsIcESaIcEE11_M_is_localEv.exit.thread.i.i.i21: ; preds = %_ZN5vcpkg15LocalizedStringD2Ev.exit
  %27 = getelementptr inbounds nuw i8, ptr %5, i64 8
  %28 = load i64, ptr %27, align 8, !tbaa !21
  %29 = icmp ult i64 %28, 16
  call void @llvm.assume(i1 %29)
  br label %_ZN5vcpkg15LocalizedStringD2Ev.exit22

_ZNKSt7__cxx1112basic_stringIcSt11char_traitsIcESaIcEE11_M_is_localEv.exit.i.i.i20: ; preds = %_ZN5vcpkg15LocalizedStringD2Ev.exit
  %30 = load i64, ptr %25, align 8, !tbaa !22
  %31 = add i64 %30, 1
  call void @_ZdlPvm(ptr noundef %24, i64 noundef %31) #24
  br label %_ZN5vcpkg15LocalizedStringD2Ev.exit22

_ZN5vcpkg15LocalizedStringD2Ev.exit22:            ; preds = %_ZNKSt7__cxx1112basic_stringIcSt11char_traitsIcESaIcEE11_M_is_localEv.exit.thread.i.i.i21, %_ZNKSt7__cxx1112basic_stringIcSt11char_traitsIcESaIcEE11_M_is_localEv.exit.i.i.i20
  call void @llvm.lifetime.end.p0(i64 32, ptr nonnull %5) #22
  br label %54

32:                                               ; preds = %10
  %33 = landingpad { ptr, i32 }
          cleanup
  br label %_ZN5vcpkg15LocalizedStringD2Ev.exit25

34:                                               ; preds = %11
  %35 = landingpad { ptr, i32 }
          cleanup
  %36 = load ptr, ptr %6, align 8, !tbaa !17
  %37 = getelementptr inbounds nuw i8, ptr %6, i64 16
  %38 = icmp eq ptr %36, %37
  br i1 %38, label %_ZNKSt7__cxx1112basic_stringIcSt11char_traitsIcESaIcEE11_M_is_localEv.exit.thread.i.i.i24, label %_ZNKSt7__cxx1112basic_stringIcSt11char_traitsIcESaIcEE11_M_is_localEv.exit.i.i.i23

_ZNKSt7__cxx1112basic_stringIcSt11char_traitsIcESaIcEE11_M_is_localEv.exit.thread.i.i.i24: ; preds = %34
  %39 = getelementptr inbounds nuw i8, ptr %6, i64 8
  %40 = load i64, ptr %39, align 8, !tbaa !21
  %41 = icmp ult i64 %40, 16
  call void @llvm.assume(i1 %41)
  br label %_ZN5vcpkg15LocalizedStringD2Ev.exit25

_ZNKSt7__cxx1112basic_stringIcSt11char_traitsIcESaIcEE11_M_is_localEv.exit.i.i.i23: ; preds = %34
  %42 = load i64, ptr %37, align 8, !tbaa !22
  %43 = add i64 %42, 1
  call void @_ZdlPvm(ptr noundef %36, i64 noundef %43) #24
  br label %_ZN5vcpkg15LocalizedStringD2Ev.exit25

_ZN5vcpkg15LocalizedStringD2Ev.exit25:            ; preds = %_ZNKSt7__cxx1112basic_stringIcSt11char_traitsIcESaIcEE11_M_is_localEv.exit.i.i.i23, %_ZNKSt7__cxx1112basic_stringIcSt11char_traitsIcESaIcEE11_M_is_localEv.exit.thread.i.i.i24, %32
  %.pn = phi { ptr, i32 } [ %33, %32 ], [ %35, %_ZNKSt7__cxx1112basic_stringIcSt11char_traitsIcESaIcEE11_M_is_localEv.exit.thread.i.i.i24 ], [ %35, %_ZNKSt7__cxx1112basic_stringIcSt11char_traitsIcESaIcEE11_M_is_localEv.exit.i.i.i23 ]
  call void @llvm.lifetime.end.p0(i64 32, ptr nonnull %6) #22
  %44 = load ptr, ptr %5, align 8, !tbaa !17
  %45 = getelementptr inbounds nuw i8, ptr %5, i64 16
  %46 = icmp eq ptr %44, %45
  br i1 %46, label %_ZNKSt7__cxx1112basic_stringIcSt11char_traitsIcESaIcEE11_M_is_localEv.exit.thread.i.i.i27, label %_ZNKSt7__cxx1112basic_stringIcSt11char_traitsIcESaIcEE11_M_is_localEv.exit.i.i.i26

_ZNKSt7__cxx1112basic_stringIcSt11char_traitsIcESaIcEE11_M_is_localEv.exit.thread.i.i.i27: ; preds = %_ZN5vcpkg15LocalizedStringD2Ev.exit25
  %47 = getelementptr inbounds nuw i8, ptr %5, i64 8
  %48 = load i64, ptr %47, align 8, !tbaa !21
  %49 = icmp ult i64 %48, 16
  call void @llvm.assume(i1 %49)
  br label %_ZN5vcpkg15LocalizedStringD2Ev.exit28

_ZNKSt7__cxx1112basic_stringIcSt11char_traitsIcESaIcEE11_M_is_localEv.exit.i.i.i26: ; preds = %_ZN5vcpkg15LocalizedStringD2Ev.exit25
  %50 = load i64, ptr %45, align 8, !tbaa !22
  %51 = add i64 %50, 1
  call void @_ZdlPvm(ptr noundef %44, i64 noundef %51) #24
  br label %_ZN5vcpkg15LocalizedStringD2Ev.exit28

_ZN5vcpkg15LocalizedStringD2Ev.exit28:            ; preds = %_ZNKSt7__cxx1112basic_stringIcSt11char_traitsIcESaIcEE11_M_is_localEv.exit.thread.i.i.i27, %_ZNKSt7__cxx1112basic_stringIcSt11char_traitsIcESaIcEE11_M_is_localEv.exit.i.i.i26
  call void @llvm.lifetime.end.p0(i64 32, ptr nonnull %5) #22
  resume { ptr, i32 } %.pn

52:                                               ; preds = %8
  %53 = tail call noundef nonnull align 8 dereferenceable(8) ptr @_ZN5vcpkg4Json6Object17insert_or_replaceENS_10StringViewERKNS0_5ValueE(ptr noundef nonnull align 8 dereferenceable(24) %3, ptr %1, i64 %2, ptr noundef nonnull align 8 dereferenceable(8) %7)
  br label %54

54:                                               ; preds = %_ZN5vcpkg15LocalizedStringD2Ev.exit22, %52, %4
  ret void
}